; Function Attrs: cold mustprogress uwtable
define void @_ZN32pxrInternal_v0_24__pxrReserved__16_PrintDiagnosticERKNS_6TfEnumERKNS_13TfCallContextERKNSt7__cxx1112basic_stringIcSt11char_traitsIcESaIcEEERKSt3any(ptr noundef nonnull align 8 dereferenceable(12) %0, ptr noundef nonnull align 8 dereferenceable(33) %1, ptr noundef nonnull align 8 dereferenceable(32) %2, ptr noundef nonnull align 8 dereferenceable(16) %3) local_unnamed_addr #8 {
  %5 = alloca %"class.std::__cxx11::basic_string", align 8
  %6 = load ptr, ptr @stderr, align 8
  call void @_ZN32pxrInternal_v0_24__pxrReserved__15TfDiagnosticMgr16FormatDiagnosticERKNS_6TfEnumERKNS_13TfCallContextERKNSt7__cxx1112basic_stringIcSt11char_traitsIcESaIcEEERKSt3any(ptr dead_on_unwind nonnull writable sret(%"class.std::__cxx11::basic_string") align 8 %5, ptr noundef nonnull align 8 dereferenceable(12) %0, ptr noundef nonnull align 8 dereferenceable(33) %1, ptr noundef nonnull align 8 dereferenceable(32) %2, ptr noundef nonnull align 8 dereferenceable(16) %3)
  %7 = call noundef ptr @_ZNKSt7__cxx1112basic_stringIcSt11char_traitsIcESaIcEE5c_strEv(ptr noundef nonnull align 8 dereferenceable(32) %5) #19
  %fputs = call i32 @fputs(ptr %7, ptr %6) #24
  call void @_ZNSt7__cxx1112basic_stringIcSt11char_traitsIcESaIcEED1Ev(ptr noundef nonnull align 8 dereferenceable(32) %5) #19
  ret void
}